target datalayout = "e-m:e-p270:32:32-p271:32:32-p272:64:64-i64:64-i128:128-f80:128-n8:16:32:64-S128"
target triple = "x86_64-pc-linux-gnu"

%struct.ResourceOwnerDesc = type { ptr, i32, i32, ptr, ptr }
%struct.TupleDescData = type { i32, i32, i32, i32, ptr, [0 x %struct.CompactAttribute] }
%struct.CompactAttribute = type { i32, i16, i8, i8, i8, i8, i8, i8, i8 }

@CurrentResourceOwner = external global ptr, align 8
@tupdesc_resowner_desc = internal constant %struct.ResourceOwnerDesc { ptr @.str.4, i32 3, i32 400, ptr @ResOwnerReleaseTupleDesc, ptr @ResOwnerPrintTupleDesc }, align 8

; Function Attrs: inlinehint nounwind uwtable
define internal i64 @PointerGetDatum(ptr noundef %0) #2 {
  %2 = alloca ptr, align 8
  store ptr %0, ptr %2, align 8
  %3 = load ptr, ptr %2, align 8
  %4 = ptrtoint ptr %3 to i64
  ret i64 %4
}

; Function Attrs: inlinehint nounwind uwtable
define internal void @ResourceOwnerForgetTupleDesc(ptr noundef %0, ptr noundef %1) #2 {
  %3 = alloca ptr, align 8
  %4 = alloca ptr, align 8
  store ptr %0, ptr %3, align 8
  store ptr %1, ptr %4, align 8
  %5 = load ptr, ptr %3, align 8
  %6 = load ptr, ptr %4, align 8
  %7 = call i64 @PointerGetDatum(ptr noundef %6)
  call void @ResourceOwnerForget(ptr noundef %5, i64 noundef %7, ptr noundef @tupdesc_resowner_desc)
  ret void
}

; Function Attrs: nounwind uwtable
define dso_local void @DecrTupleDescRefCount(ptr noundef %0) #0 {
  %2 = alloca ptr, align 8
  store ptr %0, ptr %2, align 8
  %3 = load ptr, ptr @CurrentResourceOwner, align 8
  %4 = load ptr, ptr %2, align 8
  call void @ResourceOwnerForgetTupleDesc(ptr noundef %3, ptr noundef %4)
  %5 = load ptr, ptr %2, align 8
  %6 = getelementptr inbounds nuw %struct.TupleDescData, ptr %5, i32 0, i32 3
  %7 = load i32, ptr %6, align 4
  %8 = add i32 %7, -1
  store i32 %8, ptr %6, align 4
  %9 = icmp eq i32 %8, 0
  br i1 %9, label %10, label %12

10:                                               ; preds = %1
  %11 = load ptr, ptr %2, align 8
  call void @FreeTupleDesc(ptr noundef %11)
  br label %12

12:                                               ; preds = %10, %1
  ret void
}