; Function Attrs: nounwind uwtable
define dso_local void @DecrTupleDescRefCount(ptr noundef %0) local_unnamed_addr #0 {
  %2 = load ptr, ptr @CurrentResourceOwner, align 8
  %3 = ptrtoint ptr %0 to i64
  tail call void @ResourceOwnerForget(ptr noundef %2, i64 noundef %3, ptr noundef nonnull @tupdesc_resowner_desc) #11
  %4 = getelementptr inbounds nuw i8, ptr %0, i64 12
  %5 = load i32, ptr %4, align 4
  %6 = add i32 %5, -1
  store i32 %6, ptr %4, align 4
  %7 = icmp eq i32 %6, 0
  br i1 %7, label %8, label %9

8:                                                ; preds = %1
  tail call void @FreeTupleDesc(ptr noundef nonnull %0)
  br label %9

9:                                                ; preds = %8, %1
  ret void
}